target datalayout = "e-m:e-p270:32:32-p271:32:32-p272:64:64-i64:64-i128:128-f80:128-n8:16:32:64-S128"
target triple = "x86_64-pc-linux-gnu"

%"class.nanogui::Color" = type { %"struct.nanogui::Array" }
%"struct.nanogui::Array" = type { [4 x float] }
%"class.tev::ImageCanvas" = type { %"class.nanogui::Canvas.base", float, float, float, float, i8, %"class.std::__1::shared_ptr", %"class.std::__1::shared_ptr", %"class.std::__1::basic_string", %"struct.nanogui::Matrix", %"class.std::__1::unique_ptr", i32, i32, %"class.std::__1::optional", %"class.std::__1::map", %"class.std::__1::map.25" }
%"class.nanogui::Canvas.base" = type <{ %"class.nanogui::Widget.base", [4 x i8], %"class.nanogui::ref.11", i8, [3 x i8], %"class.nanogui::Color", i8 }>
%"class.nanogui::Widget.base" = type <{ %"class.nanogui::Object.base", [4 x i8], ptr, %"class.nanogui::ref", %"class.nanogui::ref.1", %"struct.nanogui::Array.2", %"struct.nanogui::Array.2", %"struct.nanogui::Array.2", %"class.std::__1::vector", i8, i8, i8, i8, [4 x i8], %"class.std::__1::basic_string", i32, float, i32 }>
%"class.nanogui::Object.base" = type <{ ptr, %"struct.std::__1::atomic" }>
%"struct.std::__1::atomic" = type { %"struct.std::__1::__atomic_base" }
%"struct.std::__1::__atomic_base" = type { %"struct.std::__1::__atomic_base.0" }
%"struct.std::__1::__atomic_base.0" = type { %"struct.std::__1::__cxx_atomic_impl" }
%"struct.std::__1::__cxx_atomic_impl" = type { %"struct.std::__1::__cxx_atomic_base_impl" }
%"struct.std::__1::__cxx_atomic_base_impl" = type { i32 }
%"class.nanogui::ref" = type { ptr }
%"class.nanogui::ref.1" = type { ptr }
%"struct.nanogui::Array.2" = type { [2 x i32] }
%"class.std::__1::vector" = type { ptr, ptr, %"class.std::__1::__compressed_pair" }
%"class.std::__1::__compressed_pair" = type { %"struct.std::__1::__compressed_pair_elem" }
%"struct.std::__1::__compressed_pair_elem" = type { ptr }
%"class.nanogui::ref.11" = type { ptr }
%"class.std::__1::shared_ptr" = type { ptr, ptr }
%"class.std::__1::basic_string" = type { %"class.std::__1::__compressed_pair.4" }
%"class.std::__1::__compressed_pair.4" = type { %"struct.std::__1::__compressed_pair_elem.5" }
%"struct.std::__1::__compressed_pair_elem.5" = type { %"struct.std::__1::basic_string<char>::__rep" }
%"struct.std::__1::basic_string<char>::__rep" = type { %union.anon }
%union.anon = type { %"struct.std::__1::basic_string<char>::__long" }
%"struct.std::__1::basic_string<char>::__long" = type { %struct.anon.6, i64, ptr }
%struct.anon.6 = type { i64 }
%"struct.nanogui::Matrix" = type { [3 x [3 x float]] }
%"class.std::__1::unique_ptr" = type { %"class.std::__1::__compressed_pair.12" }
%"class.std::__1::__compressed_pair.12" = type { %"struct.std::__1::__compressed_pair_elem.13" }
%"struct.std::__1::__compressed_pair_elem.13" = type { ptr }
%"class.std::__1::optional" = type { %"struct.std::__1::__optional_move_assign_base.base", [3 x i8] }
%"struct.std::__1::__optional_move_assign_base.base" = type { %"struct.std::__1::__optional_copy_assign_base.base" }
%"struct.std::__1::__optional_copy_assign_base.base" = type { %"struct.std::__1::__optional_move_base.base" }
%"struct.std::__1::__optional_move_base.base" = type { %"struct.std::__1::__optional_copy_base.base" }
%"struct.std::__1::__optional_copy_base.base" = type { %"struct.std::__1::__optional_storage_base.base" }
%"struct.std::__1::__optional_storage_base.base" = type { %"struct.std::__1::__optional_destruct_base.base" }
%"struct.std::__1::__optional_destruct_base.base" = type <{ %union.anon.15, i8 }>
%union.anon.15 = type { %"struct.tev::Box" }
%"struct.tev::Box" = type { %"struct.nanogui::Array.2", %"struct.nanogui::Array.2" }
%"class.std::__1::map" = type { %"class.std::__1::__tree" }
%"class.std::__1::__tree" = type { ptr, %"class.std::__1::__compressed_pair.16", %"class.std::__1::__compressed_pair.22" }
%"class.std::__1::__compressed_pair.16" = type { %"struct.std::__1::__compressed_pair_elem.17" }
%"struct.std::__1::__compressed_pair_elem.17" = type { %"class.std::__1::__tree_end_node" }
%"class.std::__1::__tree_end_node" = type { ptr }
%"class.std::__1::__compressed_pair.22" = type { %"struct.std::__1::__compressed_pair_elem.23" }
%"struct.std::__1::__compressed_pair_elem.23" = type { i64 }
%"class.std::__1::map.25" = type { %"class.std::__1::__tree.26" }
%"class.std::__1::__tree.26" = type { ptr, %"class.std::__1::__compressed_pair.27", %"class.std::__1::__compressed_pair.32" }
%"class.std::__1::__compressed_pair.27" = type { %"struct.std::__1::__compressed_pair_elem.17" }
%"class.std::__1::__compressed_pair.32" = type { %"struct.std::__1::__compressed_pair_elem.23" }
%"struct.nanogui::Array.40" = type { [2 x float] }

; Function Attrs: mustprogress nounwind uwtable
define linkonce_odr dso_local noundef nonnull align 4 dereferenceable(4) ptr @_ZNK7nanogui5ArrayIfLm2EEixEm(ptr noundef nonnull align 4 dereferenceable(8) %0, i64 noundef %1) #1 comdat align 2 {
  %3 = alloca ptr, align 8
  %4 = alloca i64, align 8
  store ptr %0, ptr %3, align 8
  store i64 %1, ptr %4, align 8
  %5 = load ptr, ptr %3, align 8
  %6 = getelementptr inbounds %"struct.nanogui::Array.40", ptr %5, i32 0, i32 0
  %7 = load i64, ptr %4, align 8
  %8 = getelementptr inbounds [2 x float], ptr %6, i64 0, i64 %7
  ret ptr %8
}

; Function Attrs: mustprogress nounwind uwtable
define linkonce_odr dso_local void @_ZN7nanogui6MatrixIfLm3EEC2Ev(ptr noundef nonnull align 4 dereferenceable(36) %0) unnamed_addr #1 comdat align 2 {
  %2 = alloca ptr, align 8
  store ptr %0, ptr %2, align 8
  ret void
}

; Function Attrs: mustprogress uwtable
define linkonce_odr dso_local void @_ZN7nanoguimlERKNS_6MatrixIfLm3EEES3_(ptr dead_on_unwind noalias writable sret(%"struct.nanogui::Matrix") align 4 %0, ptr noundef nonnull align 4 dereferenceable(36) %1, ptr noundef nonnull align 4 dereferenceable(36) %2) #4 comdat {
  %4 = alloca ptr, align 8
  %5 = alloca ptr, align 8
  %6 = alloca i64, align 8
  %7 = alloca i64, align 8
  %8 = alloca float, align 4
  %9 = alloca i64, align 8
  store ptr %1, ptr %4, align 8
  store ptr %2, ptr %5, align 8
  call void @_ZN7nanogui6MatrixIfLm3EEC2Ev(ptr noundef nonnull align 4 dereferenceable(36) %0)
  store i64 0, ptr %6, align 8
  br label %10

10:                                               ; preds = %52, %3
  %11 = load i64, ptr %6, align 8
  %12 = icmp ult i64 %11, 3
  br i1 %12, label %13, label %55

13:                                               ; preds = %10
  store i64 0, ptr %7, align 8
  br label %14

14:                                               ; preds = %48, %13
  %15 = load i64, ptr %7, align 8
  %16 = icmp ult i64 %15, 3
  br i1 %16, label %17, label %51

17:                                               ; preds = %14
  store float 0.000000e+00, ptr %8, align 4
  store i64 0, ptr %9, align 8
  br label %18

18:                                               ; preds = %38, %17
  %19 = load i64, ptr %9, align 8
  %20 = icmp ult i64 %19, 3
  br i1 %20, label %21, label %41

21:                                               ; preds = %18
  %22 = load ptr, ptr %4, align 8
  %23 = getelementptr inbounds %"struct.nanogui::Matrix", ptr %22, i32 0, i32 0
  %24 = load i64, ptr %9, align 8
  %25 = getelementptr inbounds [3 x [3 x float]], ptr %23, i64 0, i64 %24
  %26 = load i64, ptr %6, align 8
  %27 = getelementptr inbounds [3 x float], ptr %25, i64 0, i64 %26
  %28 = load float, ptr %27, align 4
  %29 = load ptr, ptr %5, align 8
  %30 = getelementptr inbounds %"struct.nanogui::Matrix", ptr %29, i32 0, i32 0
  %31 = load i64, ptr %7, align 8
  %32 = getelementptr inbounds [3 x [3 x float]], ptr %30, i64 0, i64 %31
  %33 = load i64, ptr %9, align 8
  %34 = getelementptr inbounds [3 x float], ptr %32, i64 0, i64 %33
  %35 = load float, ptr %34, align 4
  %36 = load float, ptr %8, align 4
  %37 = call float @llvm.fmuladd.f32(float %28, float %35, float %36)
  store float %37, ptr %8, align 4
  br label %38

38:                                               ; preds = %21
  %39 = load i64, ptr %9, align 8
  %40 = add i64 %39, 1
  store i64 %40, ptr %9, align 8
  br label %18, !llvm.loop !52

41:                                               ; preds = %18
  %42 = load float, ptr %8, align 4
  %43 = getelementptr inbounds %"struct.nanogui::Matrix", ptr %0, i32 0, i32 0
  %44 = load i64, ptr %7, align 8
  %45 = getelementptr inbounds [3 x [3 x float]], ptr %43, i64 0, i64 %44
  %46 = load i64, ptr %6, align 8
  %47 = getelementptr inbounds [3 x float], ptr %45, i64 0, i64 %46
  store float %42, ptr %47, align 4
  br label %48

48:                                               ; preds = %41
  %49 = load i64, ptr %7, align 8
  %50 = add i64 %49, 1
  store i64 %50, ptr %7, align 8
  br label %14, !llvm.loop !53

51:                                               ; preds = %14
  br label %52

52:                                               ; preds = %51
  %53 = load i64, ptr %6, align 8
  %54 = add i64 %53, 1
  store i64 %54, ptr %6, align 8
  br label %10, !llvm.loop !54

55:                                               ; preds = %10
  ret void
}

; Function Attrs: mustprogress uwtable
define linkonce_odr dso_local void @_ZN7nanogui6MatrixIfLm3EE9translateERKNS_5ArrayIfLm2EEE(ptr dead_on_unwind noalias writable sret(%"struct.nanogui::Matrix") align 4 %0, ptr noundef nonnull align 4 dereferenceable(8) %1) #4 comdat align 2 {
  %3 = alloca ptr, align 8
  %4 = alloca i64, align 8
  store ptr %1, ptr %3, align 8
  call void @_ZN7nanogui6MatrixIfLm3EEC2Ev(ptr noundef nonnull align 4 dereferenceable(36) %0)
  %5 = getelementptr inbounds %"struct.nanogui::Matrix", ptr %0, i32 0, i32 0
  %6 = getelementptr inbounds [3 x [3 x float]], ptr %5, i64 0, i64 0
  call void @llvm.memset.p0.i64(ptr align 4 %6, i8 0, i64 36, i1 false)
  store i64 0, ptr %4, align 8
  br label %7

7:                                                ; preds = %28, %2
  %8 = load i64, ptr %4, align 8
  %9 = icmp ult i64 %8, 3
  br i1 %9, label %10, label %31

10:                                               ; preds = %7
  %11 = getelementptr inbounds %"struct.nanogui::Matrix", ptr %0, i32 0, i32 0
  %12 = load i64, ptr %4, align 8
  %13 = getelementptr inbounds [3 x [3 x float]], ptr %11, i64 0, i64 %12
  %14 = load i64, ptr %4, align 8
  %15 = getelementptr inbounds [3 x float], ptr %13, i64 0, i64 %14
  store float 1.000000e+00, ptr %15, align 4
  %16 = load i64, ptr %4, align 8
  %17 = icmp ult i64 %16, 2
  br i1 %17, label %18, label %27

18:                                               ; preds = %10
  %19 = load ptr, ptr %3, align 8
  %20 = load i64, ptr %4, align 8
  %21 = call noundef nonnull align 4 dereferenceable(4) ptr @_ZNK7nanogui5ArrayIfLm2EEixEm(ptr noundef nonnull align 4 dereferenceable(8) %19, i64 noundef %20)
  %22 = load float, ptr %21, align 4
  %23 = getelementptr inbounds %"struct.nanogui::Matrix", ptr %0, i32 0, i32 0
  %24 = getelementptr inbounds [3 x [3 x float]], ptr %23, i64 0, i64 2
  %25 = load i64, ptr %4, align 8
  %26 = getelementptr inbounds [3 x float], ptr %24, i64 0, i64 %25
  store float %22, ptr %26, align 4
  br label %27

27:                                               ; preds = %18, %10
  br label %28

28:                                               ; preds = %27
  %29 = load i64, ptr %4, align 8
  %30 = add i64 %29, 1
  store i64 %30, ptr %4, align 8
  br label %7, !llvm.loop !55

31:                                               ; preds = %7
  ret void
}

; Function Attrs: mustprogress uwtable
define dso_local void @_ZN3tev11ImageCanvas9translateERKN7nanogui5ArrayIfLm2EEE(ptr noundef nonnull align 8 dereferenceable(376) %0, ptr noundef nonnull align 4 dereferenceable(8) %1) #4 align 2 {
  %3 = alloca ptr, align 8
  %4 = alloca ptr, align 8
  %5 = alloca %"struct.nanogui::Matrix", align 4
  %6 = alloca %"struct.nanogui::Matrix", align 4
  store ptr %0, ptr %3, align 8
  store ptr %1, ptr %4, align 8
  %7 = load ptr, ptr %3, align 8
  %8 = load ptr, ptr %4, align 8
  call void @_ZN7nanogui6MatrixIfLm3EE9translateERKNS_5ArrayIfLm2EEE(ptr dead_on_unwind writable sret(%"struct.nanogui::Matrix") align 4 %6, ptr noundef nonnull align 4 dereferenceable(8) %8)
  %9 = getelementptr inbounds %"class.tev::ImageCanvas", ptr %7, i32 0, i32 9
  call void @_ZN7nanoguimlERKNS_6MatrixIfLm3EEES3_(ptr dead_on_unwind writable sret(%"struct.nanogui::Matrix") align 4 %5, ptr noundef nonnull align 4 dereferenceable(36) %6, ptr noundef nonnull align 4 dereferenceable(36) %9)
  %10 = getelementptr inbounds %"class.tev::ImageCanvas", ptr %7, i32 0, i32 9
  call void @llvm.memcpy.p0.p0.i64(ptr align 8 %10, ptr align 4 %5, i64 36, i1 false)
  ret void
}