; Function Attrs: mustprogress nofree norecurse nosync nounwind memory(argmem: readwrite, inaccessiblemem: readwrite) uwtable
define dso_local void @_ZN3tev11ImageCanvas9translateERKN7nanogui5ArrayIfLm2EEE(ptr nocapture noundef nonnull align 8 dereferenceable(376) %0, ptr nocapture noundef nonnull readonly align 4 dereferenceable(8) %1) local_unnamed_addr #10 align 2 {
  %3 = alloca %"struct.nanogui::Matrix", align 4
  %4 = alloca %"struct.nanogui::Matrix", align 4
  %5 = getelementptr inbounds i8, ptr %4, i64 4
  call void @llvm.memset.p0.i64(ptr noundef nonnull align 4 dereferenceable(36) %5, i8 0, i64 32, i1 false), !alias.scope !174
  %6 = getelementptr inbounds i8, ptr %4, i64 24
  store float 1.000000e+00, ptr %4, align 4, !alias.scope !174
  %7 = load i64, ptr %1, align 4
  store i64 %7, ptr %6, align 4
  br label %8

8:                                                ; preds = %2, %8
  %.07.i2 = phi i64 [ 0, %2 ], [ %9, %8 ]
  %9 = add nuw nsw i64 %.07.i2, 1
  %10 = getelementptr inbounds [3 x [3 x float]], ptr %4, i64 0, i64 %9, i64 %9
  store float 1.000000e+00, ptr %10, align 4, !alias.scope !174
  %.not.i = icmp eq i64 %9, 2
  br i1 %.not.i, label %_ZN7nanogui6MatrixIfLm3EE9translateERKNS_5ArrayIfLm2EEE.exit, label %8

_ZN7nanogui6MatrixIfLm3EE9translateERKNS_5ArrayIfLm2EEE.exit: ; preds = %8
  %11 = getelementptr inbounds i8, ptr %0, i64 248
  tail call void @llvm.experimental.noalias.scope.decl(metadata !177)
  br label %.preheader18.i

.preheader18.i:                                   ; preds = %22, %_ZN7nanogui6MatrixIfLm3EE9translateERKNS_5ArrayIfLm2EEE.exit
  %.01722.i = phi i64 [ 0, %_ZN7nanogui6MatrixIfLm3EE9translateERKNS_5ArrayIfLm2EEE.exit ], [ %23, %22 ]
  br label %.preheader.i

.preheader.i:                                     ; preds = %19, %.preheader18.i
  %.01621.i = phi i64 [ 0, %.preheader18.i ], [ %21, %19 ]
  br label %12

12:                                               ; preds = %12, %.preheader.i
  %.020.i = phi i64 [ 0, %.preheader.i ], [ %18, %12 ]
  %.01519.i = phi float [ 0.000000e+00, %.preheader.i ], [ %17, %12 ]
  %13 = getelementptr inbounds [3 x [3 x float]], ptr %4, i64 0, i64 %.020.i, i64 %.01722.i
  %14 = load float, ptr %13, align 4, !noalias !177
  %15 = getelementptr inbounds [3 x [3 x float]], ptr %11, i64 0, i64 %.01621.i, i64 %.020.i
  %16 = load float, ptr %15, align 4, !noalias !177
  %17 = tail call float @llvm.fmuladd.f32(float %14, float %16, float %.01519.i)
  %18 = add nuw nsw i64 %.020.i, 1
  %exitcond.not.i = icmp eq i64 %18, 3
  br i1 %exitcond.not.i, label %19, label %12, !llvm.loop !20

19:                                               ; preds = %12
  %20 = getelementptr inbounds [3 x [3 x float]], ptr %3, i64 0, i64 %.01621.i, i64 %.01722.i
  store float %17, ptr %20, align 4, !alias.scope !177
  %21 = add nuw nsw i64 %.01621.i, 1
  %exitcond23.not.i = icmp eq i64 %21, 3
  br i1 %exitcond23.not.i, label %22, label %.preheader.i, !llvm.loop !21

22:                                               ; preds = %19
  %23 = add nuw nsw i64 %.01722.i, 1
  %exitcond24.not.i = icmp eq i64 %23, 3
  br i1 %exitcond24.not.i, label %_ZN7nanoguimlERKNS_6MatrixIfLm3EEES3_.exit, label %.preheader18.i, !llvm.loop !22

_ZN7nanoguimlERKNS_6MatrixIfLm3EEES3_.exit:       ; preds = %22
  call void @llvm.memcpy.p0.p0.i64(ptr noundef nonnull align 8 dereferenceable(36) %11, ptr noundef nonnull align 4 dereferenceable(36) %3, i64 36, i1 false)
  ret void
}